target datalayout = "e-m:e-p270:32:32-p271:32:32-p272:64:64-i64:64-i128:128-f80:128-n8:16:32:64-S128"
target triple = "x86_64-unknown-linux-gnu"

%"class.icu_75::numparse::impl::NumberParseMatcher" = type { ptr }
%"class.icu_75::numparse::impl::AffixMatcher" = type <{ %"class.icu_75::numparse::impl::NumberParseMatcher", ptr, ptr, i32, [4 x i8] }>

; Function Attrs: mustprogress uwtable
define noundef zeroext i1 @_ZNK6icu_758numparse4impl12AffixMatcher9smokeTestERKNS_13StringSegmentE(ptr noundef nonnull align 8 dereferenceable(28) %this, ptr noundef nonnull align 8 dereferenceable(17) %segment) unnamed_addr #1 align 2 {
entry:
  %this.addr = alloca ptr, align 8
  %segment.addr = alloca ptr, align 8
  store ptr %this, ptr %this.addr, align 8
  store ptr %segment, ptr %segment.addr, align 8
  %this1 = load ptr, ptr %this.addr, align 8
  %fPrefix = getelementptr inbounds %"class.icu_75::numparse::impl::AffixMatcher", ptr %this1, i32 0, i32 1
  %0 = load ptr, ptr %fPrefix, align 8
  %cmp = icmp ne ptr %0, null
  br i1 %cmp, label %land.lhs.true, label %lor.rhs

land.lhs.true:                                    ; preds = %entry
  %fPrefix2 = getelementptr inbounds %"class.icu_75::numparse::impl::AffixMatcher", ptr %this1, i32 0, i32 1
  %1 = load ptr, ptr %fPrefix2, align 8
  %2 = load ptr, ptr %segment.addr, align 8
  %vtable = load ptr, ptr %1, align 8
  %vfn = getelementptr inbounds ptr, ptr %vtable, i64 4
  %3 = load ptr, ptr %vfn, align 8
  %call = call noundef zeroext i1 %3(ptr noundef nonnull align 8 dereferenceable(8) %1, ptr noundef nonnull align 8 dereferenceable(17) %2)
  br i1 %call, label %lor.end, label %lor.rhs

lor.rhs:                                          ; preds = %land.lhs.true, %entry
  %fSuffix = getelementptr inbounds %"class.icu_75::numparse::impl::AffixMatcher", ptr %this1, i32 0, i32 2
  %4 = load ptr, ptr %fSuffix, align 8
  %cmp3 = icmp ne ptr %4, null
  br i1 %cmp3, label %land.rhs, label %land.end

land.rhs:                                         ; preds = %lor.rhs
  %fSuffix4 = getelementptr inbounds %"class.icu_75::numparse::impl::AffixMatcher", ptr %this1, i32 0, i32 2
  %5 = load ptr, ptr %fSuffix4, align 8
  %6 = load ptr, ptr %segment.addr, align 8
  %vtable5 = load ptr, ptr %5, align 8
  %vfn6 = getelementptr inbounds ptr, ptr %vtable5, i64 4
  %7 = load ptr, ptr %vfn6, align 8
  %call7 = call noundef zeroext i1 %7(ptr noundef nonnull align 8 dereferenceable(8) %5, ptr noundef nonnull align 8 dereferenceable(17) %6)
  br label %land.end

land.end:                                         ; preds = %land.rhs, %lor.rhs
  %8 = phi i1 [ false, %lor.rhs ], [ %call7, %land.rhs ]
  br label %lor.end

lor.end:                                          ; preds = %land.end, %land.lhs.true
  %9 = phi i1 [ true, %land.lhs.true ], [ %8, %land.end ]
  ret i1 %9
}