; Function Attrs: mustprogress uwtable
define noundef zeroext i1 @_ZNK6icu_758numparse4impl12AffixMatcher9smokeTestERKNS_13StringSegmentE(ptr nocapture noundef nonnull readonly align 8 dereferenceable(28) %this, ptr noundef nonnull align 8 dereferenceable(17) %segment) unnamed_addr #1 align 2 {
entry:
  %fPrefix = getelementptr inbounds i8, ptr %this, i64 8
  %0 = load ptr, ptr %fPrefix, align 8
  %cmp.not = icmp eq ptr %0, null
  br i1 %cmp.not, label %lor.rhs, label %land.lhs.true

land.lhs.true:                                    ; preds = %entry
  %vtable = load ptr, ptr %0, align 8
  %vfn = getelementptr inbounds i8, ptr %vtable, i64 32
  %1 = load ptr, ptr %vfn, align 8
  %call = tail call noundef zeroext i1 %1(ptr noundef nonnull align 8 dereferenceable(8) %0, ptr noundef nonnull align 8 dereferenceable(17) %segment)
  br i1 %call, label %lor.end, label %lor.rhs

lor.rhs:                                          ; preds = %land.lhs.true, %entry
  %fSuffix = getelementptr inbounds i8, ptr %this, i64 16
  %2 = load ptr, ptr %fSuffix, align 8
  %cmp3.not = icmp eq ptr %2, null
  br i1 %cmp3.not, label %lor.end, label %land.rhs

land.rhs:                                         ; preds = %lor.rhs
  %vtable5 = load ptr, ptr %2, align 8
  %vfn6 = getelementptr inbounds i8, ptr %vtable5, i64 32
  %3 = load ptr, ptr %vfn6, align 8
  %call7 = tail call noundef zeroext i1 %3(ptr noundef nonnull align 8 dereferenceable(8) %2, ptr noundef nonnull align 8 dereferenceable(17) %segment)
  br label %lor.end

lor.end:                                          ; preds = %lor.rhs, %land.rhs, %land.lhs.true
  %4 = phi i1 [ true, %land.lhs.true ], [ false, %lor.rhs ], [ %call7, %land.rhs ]
  ret i1 %4
}